target datalayout = "e-m:e-p270:32:32-p271:32:32-p272:64:64-i64:64-i128:128-f80:128-n8:16:32:64-S128"
target triple = "x86_64-pc-linux-gnu"

%struct.CatalogId = type { i32, i32 }
%struct._dumpableObject = type { i32, %struct.CatalogId, i32, ptr, ptr, i32, i32, i32, i8, i8, ptr, i32, i32 }
%struct._tableInfo = type { %struct._dumpableObject, %struct._dumpableAcl, ptr, i8, i8, i8, i8, ptr, ptr, ptr, ptr, i8, i8, i8, i8, i8, i8, i8, i32, i32, i32, i32, i32, i32, i32, i32, i32, i32, i32, i8, i32, i32, i8, i8, i8, i8, i8, i32, ptr, i32, ptr, ptr, ptr, ptr, ptr, ptr, ptr, ptr, ptr, ptr, ptr, ptr, ptr, ptr, ptr, ptr, ptr, ptr, ptr, ptr, ptr, i8, ptr, i32, ptr, ptr, i32, ptr }
%struct._dumpableAcl = type { ptr, ptr, i8, ptr }

@.str.322 = private unnamed_addr constant [80 x i8] c"failed sanity check, parent table with OID %u of sequence with OID %u not found\00", align 1

; Function Attrs: nounwind uwtable
define dso_local void @getOwnedSeqs(ptr noundef %0, ptr noundef %1, i32 noundef %2) #0 {
  %4 = alloca ptr, align 8
  %5 = alloca ptr, align 8
  %6 = alloca i32, align 4
  %7 = alloca i32, align 4
  %8 = alloca ptr, align 8
  %9 = alloca ptr, align 8
  %10 = alloca i32, align 4
  store ptr %0, ptr %4, align 8
  store ptr %1, ptr %5, align 8
  store i32 %2, ptr %6, align 4
  call void @llvm.lifetime.start.p0(i64 4, ptr %7) #10
  store i32 0, ptr %7, align 4
  br label %11

11:                                               ; preds = %82, %3
  %12 = load i32, ptr %7, align 4
  %13 = load i32, ptr %6, align 4
  %14 = icmp slt i32 %12, %13
  br i1 %14, label %15, label %85

15:                                               ; preds = %11
  call void @llvm.lifetime.start.p0(i64 8, ptr %8) #10
  %16 = load ptr, ptr %5, align 8
  %17 = load i32, ptr %7, align 4
  %18 = sext i32 %17 to i64
  %19 = getelementptr inbounds %struct._tableInfo, ptr %16, i64 %18
  store ptr %19, ptr %8, align 8
  call void @llvm.lifetime.start.p0(i64 8, ptr %9) #10
  %20 = load ptr, ptr %8, align 8
  %21 = getelementptr inbounds nuw %struct._tableInfo, ptr %20, i32 0, i32 27
  %22 = load i32, ptr %21, align 4
  %23 = icmp ne i32 %22, 0
  br i1 %23, label %25, label %24

24:                                               ; preds = %15
  store i32 4, ptr %10, align 4
  br label %79

25:                                               ; preds = %15
  %26 = load ptr, ptr %8, align 8
  %27 = getelementptr inbounds nuw %struct._tableInfo, ptr %26, i32 0, i32 27
  %28 = load i32, ptr %27, align 4
  %29 = call ptr @findTableByOid(i32 noundef %28)
  store ptr %29, ptr %9, align 8
  %30 = load ptr, ptr %9, align 8
  %31 = icmp eq ptr %30, null
  br i1 %31, label %32, label %44

32:                                               ; preds = %25
  br label %33

33:                                               ; preds = %32
  %34 = load ptr, ptr %8, align 8
  %35 = getelementptr inbounds nuw %struct._tableInfo, ptr %34, i32 0, i32 27
  %36 = load i32, ptr %35, align 4
  %37 = load ptr, ptr %8, align 8
  %38 = getelementptr inbounds nuw %struct._tableInfo, ptr %37, i32 0, i32 0
  %39 = getelementptr inbounds nuw %struct._dumpableObject, ptr %38, i32 0, i32 1
  %40 = getelementptr inbounds nuw %struct.CatalogId, ptr %39, i32 0, i32 1
  %41 = load i32, ptr %40, align 4
  call void (i32, i32, ptr, ...) @pg_log_generic(i32 noundef 4, i32 noundef 0, ptr noundef @.str.322, i32 noundef %36, i32 noundef %41)
  call void @exit_nicely(i32 noundef 1) #12
  unreachable

42:                                               ; No predecessors!
  br label %43

43:                                               ; preds = %42
  br label %44

44:                                               ; preds = %43, %25
  %45 = load ptr, ptr %8, align 8
  %46 = getelementptr inbounds nuw %struct._tableInfo, ptr %45, i32 0, i32 29
  %47 = load i8, ptr %46, align 4, !range !6, !noundef !7
  %48 = trunc i8 %47 to i1
  br i1 %48, label %49, label %57

49:                                               ; preds = %44
  %50 = load ptr, ptr %9, align 8
  %51 = getelementptr inbounds nuw %struct._tableInfo, ptr %50, i32 0, i32 0
  %52 = getelementptr inbounds nuw %struct._dumpableObject, ptr %51, i32 0, i32 5
  %53 = load i32, ptr %52, align 8
  %54 = load ptr, ptr %8, align 8
  %55 = getelementptr inbounds nuw %struct._tableInfo, ptr %54, i32 0, i32 0
  %56 = getelementptr inbounds nuw %struct._dumpableObject, ptr %55, i32 0, i32 5
  store i32 %53, ptr %56, align 8
  br label %67

57:                                               ; preds = %44
  %58 = load ptr, ptr %9, align 8
  %59 = getelementptr inbounds nuw %struct._tableInfo, ptr %58, i32 0, i32 0
  %60 = getelementptr inbounds nuw %struct._dumpableObject, ptr %59, i32 0, i32 5
  %61 = load i32, ptr %60, align 8
  %62 = load ptr, ptr %8, align 8
  %63 = getelementptr inbounds nuw %struct._tableInfo, ptr %62, i32 0, i32 0
  %64 = getelementptr inbounds nuw %struct._dumpableObject, ptr %63, i32 0, i32 5
  %65 = load i32, ptr %64, align 8
  %66 = or i32 %65, %61
  store i32 %66, ptr %64, align 8
  br label %67

67:                                               ; preds = %57, %49
  %68 = load ptr, ptr %8, align 8
  %69 = getelementptr inbounds nuw %struct._tableInfo, ptr %68, i32 0, i32 0
  %70 = getelementptr inbounds nuw %struct._dumpableObject, ptr %69, i32 0, i32 5
  %71 = load i32, ptr %70, align 8
  %72 = icmp ne i32 %71, 0
  br i1 %72, label %73, label %78

73:                                               ; preds = %67
  %74 = load ptr, ptr %8, align 8
  %75 = getelementptr inbounds nuw %struct._tableInfo, ptr %74, i32 0, i32 32
  store i8 1, ptr %75, align 8
  %76 = load ptr, ptr %9, align 8
  %77 = getelementptr inbounds nuw %struct._tableInfo, ptr %76, i32 0, i32 32
  store i8 1, ptr %77, align 8
  br label %78

78:                                               ; preds = %73, %67
  store i32 0, ptr %10, align 4
  br label %79

79:                                               ; preds = %78, %24
  call void @llvm.lifetime.end.p0(i64 8, ptr %9) #10
  call void @llvm.lifetime.end.p0(i64 8, ptr %8) #10
  %80 = load i32, ptr %10, align 4
  switch i32 %80, label %86 [
    i32 0, label %81
    i32 4, label %82
  ]

81:                                               ; preds = %79
  br label %82

82:                                               ; preds = %81, %79
  %83 = load i32, ptr %7, align 4
  %84 = add i32 %83, 1
  store i32 %84, ptr %7, align 4
  br label %11, !llvm.loop !58

85:                                               ; preds = %11
  call void @llvm.lifetime.end.p0(i64 4, ptr %7) #10
  ret void

86:                                               ; preds = %79
  unreachable
}