; Function Attrs: nounwind uwtable
define dso_local void @getOwnedSeqs(ptr noundef readnone captures(none) %0, ptr noundef captures(none) %1, i32 noundef %2) local_unnamed_addr #5 {
  %4 = icmp sgt i32 %2, 0
  br i1 %4, label %.lr.ph.preheader, label %._crit_edge

.lr.ph.preheader:                                 ; preds = %3
  %wide.trip.count = zext nneg i32 %2 to i64
  br label %.lr.ph

.lr.ph:                                           ; preds = %.lr.ph.preheader, %30
  %indvars.iv = phi i64 [ 0, %.lr.ph.preheader ], [ %indvars.iv.next, %30 ]
  %5 = getelementptr inbounds nuw %struct._tableInfo, ptr %1, i64 %indvars.iv
  %6 = getelementptr inbounds nuw i8, ptr %5, i64 188
  %7 = load i32, ptr %6, align 4
  %.not = icmp eq i32 %7, 0
  br i1 %.not, label %30, label %8

8:                                                ; preds = %.lr.ph
  %9 = tail call ptr @findTableByOid(i32 noundef %7) #14
  %10 = icmp eq ptr %9, null
  br i1 %10, label %11, label %16

11:                                               ; preds = %8
  %12 = getelementptr inbounds nuw i8, ptr %5, i64 188
  %13 = load i32, ptr %12, align 4
  %14 = getelementptr inbounds nuw i8, ptr %5, i64 8
  %15 = load i32, ptr %14, align 4
  tail call void (i32, i32, ptr, ...) @pg_log_generic(i32 noundef 4, i32 noundef 0, ptr noundef nonnull @.str.322, i32 noundef %13, i32 noundef %15) #14
  tail call void @exit_nicely(i32 noundef 1) #16
  unreachable

16:                                               ; preds = %8
  %17 = getelementptr inbounds nuw i8, ptr %5, i64 196
  %18 = load i8, ptr %17, align 4, !range !7, !noundef !8
  %19 = trunc nuw i8 %18 to i1
  %20 = getelementptr inbounds nuw i8, ptr %9, i64 32
  %21 = load i32, ptr %20, align 8
  %22 = getelementptr inbounds nuw i8, ptr %5, i64 32
  br i1 %19, label %26, label %23

23:                                               ; preds = %16
  %24 = load i32, ptr %22, align 8
  %25 = or i32 %24, %21
  br label %26

26:                                               ; preds = %16, %23
  %.sink = phi i32 [ %25, %23 ], [ %21, %16 ]
  store i32 %.sink, ptr %22, align 8
  %.not19 = icmp eq i32 %.sink, 0
  br i1 %.not19, label %30, label %27

27:                                               ; preds = %26
  %28 = getelementptr inbounds nuw i8, ptr %5, i64 208
  store i8 1, ptr %28, align 8
  %29 = getelementptr inbounds nuw i8, ptr %9, i64 208
  store i8 1, ptr %29, align 8
  br label %30

30:                                               ; preds = %26, %27, %.lr.ph
  %indvars.iv.next = add nuw nsw i64 %indvars.iv, 1
  %exitcond.not = icmp eq i64 %indvars.iv.next, %wide.trip.count
  br i1 %exitcond.not, label %._crit_edge, label %.lr.ph, !llvm.loop !80

._crit_edge:                                      ; preds = %30, %3
  ret void
}